; ModuleID = '62/1811.cpp'
source_filename = "62/1811.cpp"
target datalayout = "e-m:e-p270:32:32-p271:32:32-p272:64:64-i64:64-f80:128-n8:16:32:64-S128"
target triple = "x86_64-pc-linux-gnu"

%"class.std::ios_base::Init" = type { i8 }
%"class.std::basic_ostream" = type { i32 (...)**, %"class.std::basic_ios" }
%"class.std::basic_ios" = type { %"class.std::ios_base", %"class.std::basic_ostream"*, i8, i8, %"class.std::basic_streambuf"*, %"class.std::ctype"*, %"class.std::num_put"*, %"class.std::num_get"* }
%"class.std::ios_base" = type { i32 (...)**, i64, i64, i32, i32, i32, %"struct.std::ios_base::_Callback_list"*, %"struct.std::ios_base::_Words", [8 x %"struct.std::ios_base::_Words"], i32, %"struct.std::ios_base::_Words"*, %"class.std::locale" }
%"struct.std::ios_base::_Callback_list" = type { %"struct.std::ios_base::_Callback_list"*, void (i32, %"class.std::ios_base"*, i32)*, i32, i32 }
%"struct.std::ios_base::_Words" = type { i8*, i64 }
%"class.std::locale" = type { %"class.std::locale::_Impl"* }
%"class.std::locale::_Impl" = type { i32, %"class.std::locale::facet"**, i64, %"class.std::locale::facet"**, i8** }
%"class.std::locale::facet" = type <{ i32 (...)**, i32, [4 x i8] }>
%"class.std::basic_streambuf" = type { i32 (...)**, i8*, i8*, i8*, i8*, i8*, i8*, %"class.std::locale" }
%"class.std::ctype" = type <{ %"class.std::locale::facet.base", [4 x i8], %struct.__locale_struct*, i8, [7 x i8], i32*, i32*, i16*, i8, [256 x i8], [256 x i8], i8, [6 x i8] }>
%"class.std::locale::facet.base" = type <{ i32 (...)**, i32 }>
%struct.__locale_struct = type { [13 x %struct.__locale_data*], i16*, i32*, i32*, [13 x i8*] }
%struct.__locale_data = type opaque
%"class.std::num_put" = type { %"class.std::locale::facet.base", [4 x i8] }
%"class.std::num_get" = type { %"class.std::locale::facet.base", [4 x i8] }
%"class.std::basic_istream" = type { i32 (...)**, i64, %"class.std::basic_ios" }

@_ZStL8__ioinit = internal global %"class.std::ios_base::Init" zeroinitializer, align 1
@__dso_handle = external hidden global i8
@str = dso_local global [100 x i8] zeroinitializer, align 16
@flag = dso_local global i32 0, align 4
@len = dso_local global i32 0, align 4
@_ZSt4cout = external dso_local global %"class.std::basic_ostream", align 8
@_ZSt3cin = external dso_local global %"class.std::basic_istream", align 8
@llvm.global_ctors = appending global [1 x { i32, void ()*, i8* }] [{ i32, void ()*, i8* } { i32 65535, void ()* @_GLOBAL__sub_I_1811.cpp, i8* null }]

; Function Attrs: noinline uwtable
define internal void @__cxx_global_var_init() #0 section ".text.startup" {
  call void @_ZNSt8ios_base4InitC1Ev(%"class.std::ios_base::Init"* @_ZStL8__ioinit)
  %1 = call i32 @__cxa_atexit(void (i8*)* bitcast (void (%"class.std::ios_base::Init"*)* @_ZNSt8ios_base4InitD1Ev to void (i8*)*), i8* getelementptr inbounds (%"class.std::ios_base::Init", %"class.std::ios_base::Init"* @_ZStL8__ioinit, i32 0, i32 0), i8* @__dso_handle) #3
  ret void
}

declare dso_local void @_ZNSt8ios_base4InitC1Ev(%"class.std::ios_base::Init"*) unnamed_addr #1

; Function Attrs: nounwind
declare dso_local void @_ZNSt8ios_base4InitD1Ev(%"class.std::ios_base::Init"*) unnamed_addr #2

; Function Attrs: nounwind
declare dso_local i32 @__cxa_atexit(void (i8*)*, i8*, i8*) #3

; Function Attrs: noinline uwtable
define dso_local void @_Z5clearPc(i8* %0) #0 {
  %2 = alloca i8*, align 8
  store i8* %0, i8** %2, align 8
  %3 = load i8*, i8** %2, align 8
  %4 = icmp eq i8* %3, getelementptr inbounds ([100 x i8], [100 x i8]* @str, i64 0, i64 0)
  br i1 %4, label %5, label %9

5:                                                ; preds = %1
  %6 = load i8*, i8** %2, align 8
  %7 = load i8, i8* %6, align 1
  %8 = call dereferenceable(272) %"class.std::basic_ostream"* @_ZStlsISt11char_traitsIcEERSt13basic_ostreamIcT_ES5_c(%"class.std::basic_ostream"* dereferenceable(272) @_ZSt4cout, i8 signext %7)
  br label %39

9:                                                ; preds = %1
  %10 = load i8*, i8** %2, align 8
  %11 = load i8, i8* %10, align 1
  %12 = sext i8 %11 to i32
  %13 = icmp eq i32 %12, 32
  br i1 %13, label %14, label %20

14:                                               ; preds = %9
  %15 = load i32, i32* @flag, align 4
  %16 = icmp ne i32 %15, 0
  br i1 %16, label %17, label %20

17:                                               ; preds = %14
  %18 = load i8*, i8** %2, align 8
  %19 = getelementptr inbounds i8, i8* %18, i64 -1
  call void @_Z5clearPc(i8* %19)
  br label %38

20:                                               ; preds = %14, %9
  %21 = load i8*, i8** %2, align 8
  %22 = load i8, i8* %21, align 1
  %23 = sext i8 %22 to i32
  %24 = icmp eq i32 %23, 32
  br i1 %24, label %25, label %31

25:                                               ; preds = %20
  %26 = load i32, i32* @flag, align 4
  %27 = add nsw i32 %26, 1
  store i32 %27, i32* @flag, align 4
  %28 = load i8*, i8** %2, align 8
  %29 = getelementptr inbounds i8, i8* %28, i64 -1
  call void @_Z5clearPc(i8* %29)
  %30 = call dereferenceable(272) %"class.std::basic_ostream"* @_ZStlsISt11char_traitsIcEERSt13basic_ostreamIcT_ES5_c(%"class.std::basic_ostream"* dereferenceable(272) @_ZSt4cout, i8 signext 32)
  br label %37

31:                                               ; preds = %20
  store i32 0, i32* @flag, align 4
  %32 = load i8*, i8** %2, align 8
  %33 = getelementptr inbounds i8, i8* %32, i64 -1
  call void @_Z5clearPc(i8* %33)
  %34 = load i8*, i8** %2, align 8
  %35 = load i8, i8* %34, align 1
  %36 = call dereferenceable(272) %"class.std::basic_ostream"* @_ZStlsISt11char_traitsIcEERSt13basic_ostreamIcT_ES5_c(%"class.std::basic_ostream"* dereferenceable(272) @_ZSt4cout, i8 signext %35)
  br label %37

37:                                               ; preds = %31, %25
  br label %38

38:                                               ; preds = %37, %17
  br label %39

39:                                               ; preds = %5, %38
  ret void
}

declare dso_local dereferenceable(272) %"class.std::basic_ostream"* @_ZStlsISt11char_traitsIcEERSt13basic_ostreamIcT_ES5_c(%"class.std::basic_ostream"* dereferenceable(272), i8 signext) #1

; Function Attrs: noinline norecurse uwtable
define dso_local i32 @main() #4 {
  %1 = alloca i32, align 4
  store i32 0, i32* %1, align 4
  %2 = call dereferenceable(280) %"class.std::basic_istream"* @_ZNSi7getlineEPcl(%"class.std::basic_istream"* @_ZSt3cin, i8* getelementptr inbounds ([100 x i8], [100 x i8]* @str, i64 0, i64 0), i64 100)
  %3 = call i64 @strlen(i8* getelementptr inbounds ([100 x i8], [100 x i8]* @str, i64 0, i64 0)) #6
  %4 = trunc i64 %3 to i32
  store i32 %4, i32* @len, align 4
  %5 = load i32, i32* @len, align 4
  %6 = sext i32 %5 to i64
  %7 = getelementptr inbounds i8, i8* getelementptr inbounds ([100 x i8], [100 x i8]* @str, i64 0, i64 0), i64 %6
  %8 = getelementptr inbounds i8, i8* %7, i64 -1
  call void @_Z5clearPc(i8* %8)
  ret i32 0
}

declare dso_local dereferenceable(280) %"class.std::basic_istream"* @_ZNSi7getlineEPcl(%"class.std::basic_istream"*, i8*, i64) #1

; Function Attrs: nounwind readonly
declare dso_local i64 @strlen(i8*) #5

; Function Attrs: noinline uwtable
define internal void @_GLOBAL__sub_I_1811.cpp() #0 section ".text.startup" {
  call void @__cxx_global_var_init()
  ret void
}


!llvm.module.flags = !{!0}
!llvm.ident = !{!1}

!0 = !{i32 1, !"wchar_size", i32 4}
!1 = !{!"clang version 10.0.0-4ubuntu1 "}
